; Function Attrs: nofree norecurse nosync nounwind memory(read, inaccessiblemem: none) uwtable
define i32 @Aig_ManSuppCharCommon(ptr noundef readonly captures(none) %0, ptr noundef readonly captures(none) %1) local_unnamed_addr #9 {
  %3 = getelementptr i8, ptr %1, i64 4
  %.val = load i32, ptr %3, align 4, !tbaa !33
  %4 = icmp sgt i32 %.val, 0
  br i1 %4, label %.lr.ph, label %.critedge

.lr.ph:                                           ; preds = %2
  %5 = getelementptr i8, ptr %1, i64 8
  %.val9 = load ptr, ptr %5, align 8, !tbaa !37
  %wide.trip.count = zext nneg i32 %.val to i64
  br label %6

6:                                                ; preds = %.lr.ph, %6
  %indvars.iv = phi i64 [ 0, %.lr.ph ], [ %indvars.iv.next, %6 ]
  %.011 = phi i32 [ 0, %.lr.ph ], [ %16, %6 ]
  %7 = getelementptr inbounds nuw i32, ptr %.val9, i64 %indvars.iv
  %8 = load i32, ptr %7, align 4, !tbaa !29
  %9 = ashr i32 %8, 5
  %10 = sext i32 %9 to i64
  %11 = getelementptr inbounds i32, ptr %0, i64 %10
  %12 = load i32, ptr %11, align 4, !tbaa !29
  %13 = and i32 %8, 31
  %14 = lshr i32 %12, %13
  %15 = and i32 %14, 1
  %16 = add nuw nsw i32 %15, %.011
  %indvars.iv.next = add nuw nsw i64 %indvars.iv, 1
  %exitcond.not = icmp eq i64 %indvars.iv.next, %wide.trip.count
  br i1 %exitcond.not, label %.critedge, label %6, !llvm.loop !72

.critedge:                                        ; preds = %6, %2
  %.0.lcssa = phi i32 [ 0, %2 ], [ %16, %6 ]
  ret i32 %.0.lcssa
}